; Function Attrs: mustprogress uwtable
define void @_ZN19OpenColorIO_v2_5dev12ViewingRules16removeColorSpaceEmm(ptr noundef nonnull readonly align 8 captures(none) dereferenceable(16) %0, i64 noundef %1, i64 noundef %2) local_unnamed_addr #0 align 2 {
  %4 = tail call noundef ptr @_ZNK19OpenColorIO_v2_5dev12ViewingRules13getColorSpaceEmm(ptr noundef nonnull align 8 dereferenceable(16) %0, i64 noundef %1, i64 noundef %2)
  %5 = getelementptr inbounds nuw i8, ptr %0, i64 8
  %6 = load ptr, ptr %5, align 8, !tbaa !6
  %7 = load ptr, ptr %6, align 8, !tbaa !11
  %8 = getelementptr inbounds nuw %"class.std::shared_ptr.0", ptr %7, i64 %1
  %9 = load ptr, ptr %8, align 8, !tbaa !36
  %10 = getelementptr inbounds nuw i8, ptr %9, i64 48
  tail call void @_ZN19OpenColorIO_v2_5dev13TokensManager11removeTokenEPKc(ptr noundef nonnull align 8 dereferenceable(32) %10, ptr noundef %4) #25
  ret void
}